target datalayout = "e-m:e-p270:32:32-p271:32:32-p272:64:64-i64:64-i128:128-f80:128-n8:16:32:64-S128"
target triple = "x86_64-pc-linux-gnu"

%"class.ncnn::Gemm" = type <{ %"class.ncnn::Layer", float, float, i32, i32, i32, i32, i32, i32, i32, i32, i32, i32, i32, i32, i32, i32, i32, i32, i32, [4 x i8], %"class.ncnn::Mat", %"class.ncnn::Mat", %"class.ncnn::Mat", %"class.ncnn::Mat", float, [4 x i8] }>
%"class.ncnn::Layer" = type { ptr, i8, i8, i8, i8, i8, i8, i8, i8, i8, i8, i8, i8, i8, i8, i8, i8, i8, i8, i8, i8, i32, ptr, i32, %"class.std::__cxx11::basic_string", %"class.std::__cxx11::basic_string", %"class.std::vector", %"class.std::vector", %"class.std::vector.3", %"class.std::vector.3" }
%"class.std::__cxx11::basic_string" = type { %"struct.std::__cxx11::basic_string<char>::_Alloc_hider", i64, %union.anon }
%"struct.std::__cxx11::basic_string<char>::_Alloc_hider" = type { ptr }
%union.anon = type { i64, [8 x i8] }
%"class.std::vector" = type { %"struct.std::_Vector_base" }
%"struct.std::_Vector_base" = type { %"struct.std::_Vector_base<int, std::allocator<int>>::_Vector_impl" }
%"struct.std::_Vector_base<int, std::allocator<int>>::_Vector_impl" = type { %"struct.std::_Vector_base<int, std::allocator<int>>::_Vector_impl_data" }
%"struct.std::_Vector_base<int, std::allocator<int>>::_Vector_impl_data" = type { ptr, ptr, ptr }
%"class.std::vector.3" = type { %"struct.std::_Vector_base.4" }
%"struct.std::_Vector_base.4" = type { %"struct.std::_Vector_base<ncnn::Mat, std::allocator<ncnn::Mat>>::_Vector_impl" }
%"struct.std::_Vector_base<ncnn::Mat, std::allocator<ncnn::Mat>>::_Vector_impl" = type { %"struct.std::_Vector_base<ncnn::Mat, std::allocator<ncnn::Mat>>::_Vector_impl_data" }
%"struct.std::_Vector_base<ncnn::Mat, std::allocator<ncnn::Mat>>::_Vector_impl_data" = type { ptr, ptr, ptr }
%"class.ncnn::Mat" = type { ptr, ptr, i64, i32, ptr, i32, i32, i32, i32, i32, i64 }

@stderr = external global ptr, align 8
@.str = private unnamed_addr constant [64 x i8] c"constantM and constantK must be non-zero when constantA enabled\00", align 1
@.str.1 = private unnamed_addr constant [2 x i8] c"\0A\00", align 1
@.str.2 = private unnamed_addr constant [64 x i8] c"constantN and constantK must be non-zero when constantB enabled\00", align 1
@.str.3 = private unnamed_addr constant [67 x i8] c"constant_broadcast_type_C must be -1 or 0~4 when constantC enabled\00", align 1

; Function Attrs: mustprogress uwtable
define hidden noundef i32 @_ZN4ncnn4Gemm10load_paramERKNS_9ParamDictE(ptr noundef nonnull align 8 dereferenceable(580) %0, ptr noundef nonnull align 8 dereferenceable(16) %1) unnamed_addr #1 align 2 {
  %3 = alloca i32, align 4
  %4 = alloca ptr, align 8
  %5 = alloca ptr, align 8
  store ptr %0, ptr %4, align 8, !tbaa !4
  store ptr %1, ptr %5, align 8, !tbaa !11
  %6 = load ptr, ptr %4, align 8
  %7 = load ptr, ptr %5, align 8, !tbaa !11
  %8 = call fast noundef nofpclass(nan inf) float @_ZNK4ncnn9ParamDict3getEif(ptr noundef nonnull align 8 dereferenceable(16) %7, i32 noundef 0, float noundef nofpclass(nan inf) 1.000000e+00)
  %9 = getelementptr inbounds nuw %"class.ncnn::Gemm", ptr %6, i32 0, i32 1
  store float %8, ptr %9, align 8, !tbaa !13
  %10 = load ptr, ptr %5, align 8, !tbaa !11
  %11 = call fast noundef nofpclass(nan inf) float @_ZNK4ncnn9ParamDict3getEif(ptr noundef nonnull align 8 dereferenceable(16) %10, i32 noundef 1, float noundef nofpclass(nan inf) 1.000000e+00)
  %12 = getelementptr inbounds nuw %"class.ncnn::Gemm", ptr %6, i32 0, i32 2
  store float %11, ptr %12, align 4, !tbaa !35
  %13 = load ptr, ptr %5, align 8, !tbaa !11
  %14 = call noundef i32 @_ZNK4ncnn9ParamDict3getEii(ptr noundef nonnull align 8 dereferenceable(16) %13, i32 noundef 2, i32 noundef 0)
  %15 = getelementptr inbounds nuw %"class.ncnn::Gemm", ptr %6, i32 0, i32 3
  store i32 %14, ptr %15, align 8, !tbaa !36
  %16 = load ptr, ptr %5, align 8, !tbaa !11
  %17 = call noundef i32 @_ZNK4ncnn9ParamDict3getEii(ptr noundef nonnull align 8 dereferenceable(16) %16, i32 noundef 3, i32 noundef 0)
  %18 = getelementptr inbounds nuw %"class.ncnn::Gemm", ptr %6, i32 0, i32 4
  store i32 %17, ptr %18, align 4, !tbaa !37
  %19 = load ptr, ptr %5, align 8, !tbaa !11
  %20 = call noundef i32 @_ZNK4ncnn9ParamDict3getEii(ptr noundef nonnull align 8 dereferenceable(16) %19, i32 noundef 4, i32 noundef 0)
  %21 = getelementptr inbounds nuw %"class.ncnn::Gemm", ptr %6, i32 0, i32 5
  store i32 %20, ptr %21, align 8, !tbaa !38
  %22 = load ptr, ptr %5, align 8, !tbaa !11
  %23 = call noundef i32 @_ZNK4ncnn9ParamDict3getEii(ptr noundef nonnull align 8 dereferenceable(16) %22, i32 noundef 5, i32 noundef 0)
  %24 = getelementptr inbounds nuw %"class.ncnn::Gemm", ptr %6, i32 0, i32 6
  store i32 %23, ptr %24, align 4, !tbaa !39
  %25 = load ptr, ptr %5, align 8, !tbaa !11
  %26 = call noundef i32 @_ZNK4ncnn9ParamDict3getEii(ptr noundef nonnull align 8 dereferenceable(16) %25, i32 noundef 6, i32 noundef 0)
  %27 = getelementptr inbounds nuw %"class.ncnn::Gemm", ptr %6, i32 0, i32 7
  store i32 %26, ptr %27, align 8, !tbaa !40
  %28 = load ptr, ptr %5, align 8, !tbaa !11
  %29 = call noundef i32 @_ZNK4ncnn9ParamDict3getEii(ptr noundef nonnull align 8 dereferenceable(16) %28, i32 noundef 7, i32 noundef 0)
  %30 = getelementptr inbounds nuw %"class.ncnn::Gemm", ptr %6, i32 0, i32 8
  store i32 %29, ptr %30, align 4, !tbaa !41
  %31 = load ptr, ptr %5, align 8, !tbaa !11
  %32 = call noundef i32 @_ZNK4ncnn9ParamDict3getEii(ptr noundef nonnull align 8 dereferenceable(16) %31, i32 noundef 8, i32 noundef 0)
  %33 = getelementptr inbounds nuw %"class.ncnn::Gemm", ptr %6, i32 0, i32 9
  store i32 %32, ptr %33, align 8, !tbaa !42
  %34 = load ptr, ptr %5, align 8, !tbaa !11
  %35 = call noundef i32 @_ZNK4ncnn9ParamDict3getEii(ptr noundef nonnull align 8 dereferenceable(16) %34, i32 noundef 9, i32 noundef 0)
  %36 = getelementptr inbounds nuw %"class.ncnn::Gemm", ptr %6, i32 0, i32 10
  store i32 %35, ptr %36, align 4, !tbaa !43
  %37 = load ptr, ptr %5, align 8, !tbaa !11
  %38 = call noundef i32 @_ZNK4ncnn9ParamDict3getEii(ptr noundef nonnull align 8 dereferenceable(16) %37, i32 noundef 10, i32 noundef 0)
  %39 = getelementptr inbounds nuw %"class.ncnn::Gemm", ptr %6, i32 0, i32 11
  store i32 %38, ptr %39, align 8, !tbaa !44
  %40 = load ptr, ptr %5, align 8, !tbaa !11
  %41 = call noundef i32 @_ZNK4ncnn9ParamDict3getEii(ptr noundef nonnull align 8 dereferenceable(16) %40, i32 noundef 11, i32 noundef 0)
  %42 = getelementptr inbounds nuw %"class.ncnn::Gemm", ptr %6, i32 0, i32 12
  store i32 %41, ptr %42, align 4, !tbaa !45
  %43 = load ptr, ptr %5, align 8, !tbaa !11
  %44 = call noundef i32 @_ZNK4ncnn9ParamDict3getEii(ptr noundef nonnull align 8 dereferenceable(16) %43, i32 noundef 12, i32 noundef 0)
  %45 = getelementptr inbounds nuw %"class.ncnn::Gemm", ptr %6, i32 0, i32 13
  store i32 %44, ptr %45, align 8, !tbaa !46
  %46 = load ptr, ptr %5, align 8, !tbaa !11
  %47 = call noundef i32 @_ZNK4ncnn9ParamDict3getEii(ptr noundef nonnull align 8 dereferenceable(16) %46, i32 noundef 13, i32 noundef 0)
  %48 = getelementptr inbounds nuw %"class.ncnn::Gemm", ptr %6, i32 0, i32 14
  store i32 %47, ptr %48, align 4, !tbaa !47
  %49 = load ptr, ptr %5, align 8, !tbaa !11
  %50 = call noundef i32 @_ZNK4ncnn9ParamDict3getEii(ptr noundef nonnull align 8 dereferenceable(16) %49, i32 noundef 14, i32 noundef 0)
  %51 = getelementptr inbounds nuw %"class.ncnn::Gemm", ptr %6, i32 0, i32 15
  store i32 %50, ptr %51, align 8, !tbaa !48
  %52 = load ptr, ptr %5, align 8, !tbaa !11
  %53 = call noundef i32 @_ZNK4ncnn9ParamDict3getEii(ptr noundef nonnull align 8 dereferenceable(16) %52, i32 noundef 18, i32 noundef 0)
  %54 = getelementptr inbounds nuw %"class.ncnn::Gemm", ptr %6, i32 0, i32 16
  store i32 %53, ptr %54, align 4, !tbaa !49
  %55 = load ptr, ptr %5, align 8, !tbaa !11
  %56 = call noundef i32 @_ZNK4ncnn9ParamDict3getEii(ptr noundef nonnull align 8 dereferenceable(16) %55, i32 noundef 20, i32 noundef 0)
  %57 = getelementptr inbounds nuw %"class.ncnn::Gemm", ptr %6, i32 0, i32 17
  store i32 %56, ptr %57, align 8, !tbaa !50
  %58 = load ptr, ptr %5, align 8, !tbaa !11
  %59 = call noundef i32 @_ZNK4ncnn9ParamDict3getEii(ptr noundef nonnull align 8 dereferenceable(16) %58, i32 noundef 21, i32 noundef 0)
  %60 = getelementptr inbounds nuw %"class.ncnn::Gemm", ptr %6, i32 0, i32 18
  store i32 %59, ptr %60, align 4, !tbaa !51
  %61 = load ptr, ptr %5, align 8, !tbaa !11
  %62 = call noundef i32 @_ZNK4ncnn9ParamDict3getEii(ptr noundef nonnull align 8 dereferenceable(16) %61, i32 noundef 22, i32 noundef 0)
  %63 = getelementptr inbounds nuw %"class.ncnn::Gemm", ptr %6, i32 0, i32 19
  store i32 %62, ptr %63, align 8, !tbaa !52
  %64 = getelementptr inbounds nuw %"class.ncnn::Gemm", ptr %6, i32 0, i32 16
  %65 = load i32, ptr %64, align 4, !tbaa !49
  %66 = icmp ne i32 %65, 0
  br i1 %66, label %67, label %68

67:                                               ; preds = %2
  br label %68

68:                                               ; preds = %67, %2
  %69 = getelementptr inbounds nuw %"class.ncnn::Gemm", ptr %6, i32 0, i32 5
  %70 = load i32, ptr %69, align 8, !tbaa !38
  %71 = icmp eq i32 %70, 1
  br i1 %71, label %72, label %87

72:                                               ; preds = %68
  %73 = getelementptr inbounds nuw %"class.ncnn::Gemm", ptr %6, i32 0, i32 8
  %74 = load i32, ptr %73, align 4, !tbaa !41
  %75 = icmp eq i32 %74, 0
  br i1 %75, label %80, label %76

76:                                               ; preds = %72
  %77 = getelementptr inbounds nuw %"class.ncnn::Gemm", ptr %6, i32 0, i32 10
  %78 = load i32, ptr %77, align 4, !tbaa !43
  %79 = icmp eq i32 %78, 0
  br i1 %79, label %80, label %87

80:                                               ; preds = %76, %72
  br label %81

81:                                               ; preds = %80
  %82 = load ptr, ptr @stderr, align 8, !tbaa !53
  %83 = call i32 (ptr, ptr, ...) @fprintf(ptr noundef %82, ptr noundef @.str) #15
  %84 = load ptr, ptr @stderr, align 8, !tbaa !53
  %85 = call i32 (ptr, ptr, ...) @fprintf(ptr noundef %84, ptr noundef @.str.1) #15
  br label %86

86:                                               ; preds = %81
  store i32 -1, ptr %3, align 4
  br label %168

87:                                               ; preds = %76, %68
  %88 = getelementptr inbounds nuw %"class.ncnn::Gemm", ptr %6, i32 0, i32 6
  %89 = load i32, ptr %88, align 4, !tbaa !39
  %90 = icmp eq i32 %89, 1
  br i1 %90, label %91, label %106

91:                                               ; preds = %87
  %92 = getelementptr inbounds nuw %"class.ncnn::Gemm", ptr %6, i32 0, i32 9
  %93 = load i32, ptr %92, align 8, !tbaa !42
  %94 = icmp eq i32 %93, 0
  br i1 %94, label %99, label %95

95:                                               ; preds = %91
  %96 = getelementptr inbounds nuw %"class.ncnn::Gemm", ptr %6, i32 0, i32 10
  %97 = load i32, ptr %96, align 4, !tbaa !43
  %98 = icmp eq i32 %97, 0
  br i1 %98, label %99, label %106

99:                                               ; preds = %95, %91
  br label %100

100:                                              ; preds = %99
  %101 = load ptr, ptr @stderr, align 8, !tbaa !53
  %102 = call i32 (ptr, ptr, ...) @fprintf(ptr noundef %101, ptr noundef @.str.2) #15
  %103 = load ptr, ptr @stderr, align 8, !tbaa !53
  %104 = call i32 (ptr, ptr, ...) @fprintf(ptr noundef %103, ptr noundef @.str.1) #15
  br label %105

105:                                              ; preds = %100
  store i32 -1, ptr %3, align 4
  br label %168

106:                                              ; preds = %95, %87
  %107 = getelementptr inbounds nuw %"class.ncnn::Gemm", ptr %6, i32 0, i32 7
  %108 = load i32, ptr %107, align 8, !tbaa !40
  %109 = icmp eq i32 %108, 1
  br i1 %109, label %110, label %125

110:                                              ; preds = %106
  %111 = getelementptr inbounds nuw %"class.ncnn::Gemm", ptr %6, i32 0, i32 11
  %112 = load i32, ptr %111, align 8, !tbaa !44
  %113 = icmp slt i32 %112, -1
  br i1 %113, label %118, label %114

114:                                              ; preds = %110
  %115 = getelementptr inbounds nuw %"class.ncnn::Gemm", ptr %6, i32 0, i32 11
  %116 = load i32, ptr %115, align 8, !tbaa !44
  %117 = icmp sgt i32 %116, 4
  br i1 %117, label %118, label %125

118:                                              ; preds = %114, %110
  br label %119

119:                                              ; preds = %118
  %120 = load ptr, ptr @stderr, align 8, !tbaa !53
  %121 = call i32 (ptr, ptr, ...) @fprintf(ptr noundef %120, ptr noundef @.str.3) #15
  %122 = load ptr, ptr @stderr, align 8, !tbaa !53
  %123 = call i32 (ptr, ptr, ...) @fprintf(ptr noundef %122, ptr noundef @.str.1) #15
  br label %124

124:                                              ; preds = %119
  store i32 -1, ptr %3, align 4
  br label %168

125:                                              ; preds = %114, %106
  %126 = getelementptr inbounds nuw %"class.ncnn::Gemm", ptr %6, i32 0, i32 5
  %127 = load i32, ptr %126, align 8, !tbaa !38
  %128 = icmp eq i32 %127, 0
  br i1 %128, label %129, label %139

129:                                              ; preds = %125
  %130 = getelementptr inbounds nuw %"class.ncnn::Gemm", ptr %6, i32 0, i32 6
  %131 = load i32, ptr %130, align 4, !tbaa !39
  %132 = icmp eq i32 %131, 1
  br i1 %132, label %133, label %139

133:                                              ; preds = %129
  %134 = getelementptr inbounds nuw %"class.ncnn::Gemm", ptr %6, i32 0, i32 7
  %135 = load i32, ptr %134, align 8, !tbaa !40
  %136 = icmp eq i32 %135, 1
  br i1 %136, label %137, label %139

137:                                              ; preds = %133
  %138 = getelementptr inbounds nuw %"class.ncnn::Layer", ptr %6, i32 0, i32 1
  store i8 1, ptr %138, align 8, !tbaa !55
  br label %139

139:                                              ; preds = %137, %133, %129, %125
  %140 = getelementptr inbounds nuw %"class.ncnn::Gemm", ptr %6, i32 0, i32 5
  %141 = load i32, ptr %140, align 8, !tbaa !38
  %142 = icmp eq i32 %141, 1
  br i1 %142, label %143, label %153

143:                                              ; preds = %139
  %144 = getelementptr inbounds nuw %"class.ncnn::Gemm", ptr %6, i32 0, i32 6
  %145 = load i32, ptr %144, align 4, !tbaa !39
  %146 = icmp eq i32 %145, 0
  br i1 %146, label %147, label %153

147:                                              ; preds = %143
  %148 = getelementptr inbounds nuw %"class.ncnn::Gemm", ptr %6, i32 0, i32 7
  %149 = load i32, ptr %148, align 8, !tbaa !40
  %150 = icmp eq i32 %149, 1
  br i1 %150, label %151, label %153

151:                                              ; preds = %147
  %152 = getelementptr inbounds nuw %"class.ncnn::Layer", ptr %6, i32 0, i32 1
  store i8 1, ptr %152, align 8, !tbaa !55
  br label %153

153:                                              ; preds = %151, %147, %143, %139
  %154 = getelementptr inbounds nuw %"class.ncnn::Gemm", ptr %6, i32 0, i32 5
  %155 = load i32, ptr %154, align 8, !tbaa !38
  %156 = icmp eq i32 %155, 1
  br i1 %156, label %157, label %167

157:                                              ; preds = %153
  %158 = getelementptr inbounds nuw %"class.ncnn::Gemm", ptr %6, i32 0, i32 6
  %159 = load i32, ptr %158, align 4, !tbaa !39
  %160 = icmp eq i32 %159, 1
  br i1 %160, label %161, label %167

161:                                              ; preds = %157
  %162 = getelementptr inbounds nuw %"class.ncnn::Gemm", ptr %6, i32 0, i32 7
  %163 = load i32, ptr %162, align 8, !tbaa !40
  %164 = icmp eq i32 %163, 0
  br i1 %164, label %165, label %167

165:                                              ; preds = %161
  %166 = getelementptr inbounds nuw %"class.ncnn::Layer", ptr %6, i32 0, i32 1
  store i8 1, ptr %166, align 8, !tbaa !55
  br label %167

167:                                              ; preds = %165, %161, %157, %153
  store i32 0, ptr %3, align 4
  br label %168

168:                                              ; preds = %167, %124, %105, %86
  %169 = load i32, ptr %3, align 4
  ret i32 %169
}