; Function Attrs: mustprogress uwtable
define hidden noundef range(i32 -1, 1) i32 @_ZN4ncnn4Gemm10load_paramERKNS_9ParamDictE(ptr noundef nonnull align 8 captures(none) dereferenceable(580) initializes((208, 284)) %0, ptr noundef nonnull align 8 dereferenceable(16) %1) unnamed_addr #1 align 2 {
  %3 = tail call fast noundef nofpclass(nan inf) float @_ZNK4ncnn9ParamDict3getEif(ptr noundef nonnull align 8 dereferenceable(16) %1, i32 noundef 0, float noundef nofpclass(nan inf) 1.000000e+00)
  %4 = getelementptr inbounds nuw i8, ptr %0, i64 208
  store float %3, ptr %4, align 8, !tbaa !18
  %5 = tail call fast noundef nofpclass(nan inf) float @_ZNK4ncnn9ParamDict3getEif(ptr noundef nonnull align 8 dereferenceable(16) %1, i32 noundef 1, float noundef nofpclass(nan inf) 1.000000e+00)
  %6 = getelementptr inbounds nuw i8, ptr %0, i64 212
  store float %5, ptr %6, align 4, !tbaa !35
  %7 = tail call noundef i32 @_ZNK4ncnn9ParamDict3getEii(ptr noundef nonnull align 8 dereferenceable(16) %1, i32 noundef 2, i32 noundef 0)
  %8 = getelementptr inbounds nuw i8, ptr %0, i64 216
  store i32 %7, ptr %8, align 8, !tbaa !36
  %9 = tail call noundef i32 @_ZNK4ncnn9ParamDict3getEii(ptr noundef nonnull align 8 dereferenceable(16) %1, i32 noundef 3, i32 noundef 0)
  %10 = getelementptr inbounds nuw i8, ptr %0, i64 220
  store i32 %9, ptr %10, align 4, !tbaa !37
  %11 = tail call noundef i32 @_ZNK4ncnn9ParamDict3getEii(ptr noundef nonnull align 8 dereferenceable(16) %1, i32 noundef 4, i32 noundef 0)
  %12 = getelementptr inbounds nuw i8, ptr %0, i64 224
  store i32 %11, ptr %12, align 8, !tbaa !38
  %13 = tail call noundef i32 @_ZNK4ncnn9ParamDict3getEii(ptr noundef nonnull align 8 dereferenceable(16) %1, i32 noundef 5, i32 noundef 0)
  %14 = getelementptr inbounds nuw i8, ptr %0, i64 228
  store i32 %13, ptr %14, align 4, !tbaa !39
  %15 = tail call noundef i32 @_ZNK4ncnn9ParamDict3getEii(ptr noundef nonnull align 8 dereferenceable(16) %1, i32 noundef 6, i32 noundef 0)
  %16 = getelementptr inbounds nuw i8, ptr %0, i64 232
  store i32 %15, ptr %16, align 8, !tbaa !40
  %17 = tail call noundef i32 @_ZNK4ncnn9ParamDict3getEii(ptr noundef nonnull align 8 dereferenceable(16) %1, i32 noundef 7, i32 noundef 0)
  %18 = getelementptr inbounds nuw i8, ptr %0, i64 236
  store i32 %17, ptr %18, align 4, !tbaa !41
  %19 = tail call noundef i32 @_ZNK4ncnn9ParamDict3getEii(ptr noundef nonnull align 8 dereferenceable(16) %1, i32 noundef 8, i32 noundef 0)
  %20 = getelementptr inbounds nuw i8, ptr %0, i64 240
  store i32 %19, ptr %20, align 8, !tbaa !42
  %21 = tail call noundef i32 @_ZNK4ncnn9ParamDict3getEii(ptr noundef nonnull align 8 dereferenceable(16) %1, i32 noundef 9, i32 noundef 0)
  %22 = getelementptr inbounds nuw i8, ptr %0, i64 244
  store i32 %21, ptr %22, align 4, !tbaa !43
  %23 = tail call noundef i32 @_ZNK4ncnn9ParamDict3getEii(ptr noundef nonnull align 8 dereferenceable(16) %1, i32 noundef 10, i32 noundef 0)
  %24 = getelementptr inbounds nuw i8, ptr %0, i64 248
  store i32 %23, ptr %24, align 8, !tbaa !44
  %25 = tail call noundef i32 @_ZNK4ncnn9ParamDict3getEii(ptr noundef nonnull align 8 dereferenceable(16) %1, i32 noundef 11, i32 noundef 0)
  %26 = getelementptr inbounds nuw i8, ptr %0, i64 252
  store i32 %25, ptr %26, align 4, !tbaa !45
  %27 = tail call noundef i32 @_ZNK4ncnn9ParamDict3getEii(ptr noundef nonnull align 8 dereferenceable(16) %1, i32 noundef 12, i32 noundef 0)
  %28 = getelementptr inbounds nuw i8, ptr %0, i64 256
  store i32 %27, ptr %28, align 8, !tbaa !46
  %29 = tail call noundef i32 @_ZNK4ncnn9ParamDict3getEii(ptr noundef nonnull align 8 dereferenceable(16) %1, i32 noundef 13, i32 noundef 0)
  %30 = getelementptr inbounds nuw i8, ptr %0, i64 260
  store i32 %29, ptr %30, align 4, !tbaa !47
  %31 = tail call noundef i32 @_ZNK4ncnn9ParamDict3getEii(ptr noundef nonnull align 8 dereferenceable(16) %1, i32 noundef 14, i32 noundef 0)
  %32 = getelementptr inbounds nuw i8, ptr %0, i64 264
  store i32 %31, ptr %32, align 8, !tbaa !48
  %33 = tail call noundef i32 @_ZNK4ncnn9ParamDict3getEii(ptr noundef nonnull align 8 dereferenceable(16) %1, i32 noundef 18, i32 noundef 0)
  %34 = getelementptr inbounds nuw i8, ptr %0, i64 268
  store i32 %33, ptr %34, align 4, !tbaa !49
  %35 = tail call noundef i32 @_ZNK4ncnn9ParamDict3getEii(ptr noundef nonnull align 8 dereferenceable(16) %1, i32 noundef 20, i32 noundef 0)
  %36 = getelementptr inbounds nuw i8, ptr %0, i64 272
  store i32 %35, ptr %36, align 8, !tbaa !50
  %37 = tail call noundef i32 @_ZNK4ncnn9ParamDict3getEii(ptr noundef nonnull align 8 dereferenceable(16) %1, i32 noundef 21, i32 noundef 0)
  %38 = getelementptr inbounds nuw i8, ptr %0, i64 276
  store i32 %37, ptr %38, align 4, !tbaa !51
  %39 = tail call noundef i32 @_ZNK4ncnn9ParamDict3getEii(ptr noundef nonnull align 8 dereferenceable(16) %1, i32 noundef 22, i32 noundef 0)
  %40 = getelementptr inbounds nuw i8, ptr %0, i64 280
  store i32 %39, ptr %40, align 8, !tbaa !52
  %41 = load i32, ptr %12, align 8, !tbaa !38
  %42 = icmp eq i32 %41, 1
  br i1 %42, label %43, label %52

43:                                               ; preds = %2
  %44 = load i32, ptr %18, align 4, !tbaa !41
  %45 = icmp eq i32 %44, 0
  %46 = load i32, ptr %22, align 4
  %47 = icmp eq i32 %46, 0
  %or.cond = select i1 %45, i1 true, i1 %47
  br i1 %or.cond, label %48, label %52

48:                                               ; preds = %43
  %49 = load ptr, ptr @stderr, align 8, !tbaa !53
  %50 = tail call i64 @fwrite(ptr nonnull @.str, i64 63, i64 1, ptr %49) #20
  %51 = load ptr, ptr @stderr, align 8, !tbaa !53
  %fputc22 = tail call i32 @fputc(i32 10, ptr %51)
  br label %.thread45

52:                                               ; preds = %43, %2
  %53 = load i32, ptr %14, align 4, !tbaa !39
  %54 = icmp eq i32 %53, 1
  br i1 %54, label %55, label %64

55:                                               ; preds = %52
  %56 = load i32, ptr %20, align 8, !tbaa !42
  %57 = icmp eq i32 %56, 0
  %58 = load i32, ptr %22, align 4
  %59 = icmp eq i32 %58, 0
  %or.cond25 = select i1 %57, i1 true, i1 %59
  br i1 %or.cond25, label %60, label %64

60:                                               ; preds = %55
  %61 = load ptr, ptr @stderr, align 8, !tbaa !53
  %62 = tail call i64 @fwrite(ptr nonnull @.str.2, i64 63, i64 1, ptr %61) #20
  %63 = load ptr, ptr @stderr, align 8, !tbaa !53
  %fputc21 = tail call i32 @fputc(i32 10, ptr %63)
  br label %.thread45

64:                                               ; preds = %55, %52
  %65 = load i32, ptr %16, align 8, !tbaa !40
  %66 = icmp eq i32 %65, 1
  br i1 %66, label %67, label %81

67:                                               ; preds = %64
  %68 = load i32, ptr %24, align 8, !tbaa !44
  %69 = add i32 %68, -5
  %or.cond26 = icmp ult i32 %69, -6
  br i1 %or.cond26, label %70, label %74

70:                                               ; preds = %67
  %71 = load ptr, ptr @stderr, align 8, !tbaa !53
  %72 = tail call i64 @fwrite(ptr nonnull @.str.3, i64 66, i64 1, ptr %71) #20
  %73 = load ptr, ptr @stderr, align 8, !tbaa !53
  %fputc = tail call i32 @fputc(i32 10, ptr %73)
  br label %.thread45

74:                                               ; preds = %67
  %75 = icmp eq i32 %41, 0
  %or.cond28 = and i1 %75, %54
  br i1 %or.cond28, label %.thread48, label %77

.thread48:                                        ; preds = %74
  %76 = getelementptr inbounds nuw i8, ptr %0, i64 8
  store i8 1, ptr %76, align 8, !tbaa !55
  br label %.thread45

77:                                               ; preds = %74
  %78 = icmp eq i32 %53, 0
  %or.cond32 = and i1 %42, %78
  br i1 %or.cond32, label %79, label %.thread45

79:                                               ; preds = %77
  %80 = getelementptr inbounds nuw i8, ptr %0, i64 8
  store i8 1, ptr %80, align 8, !tbaa !55
  br label %.thread45

81:                                               ; preds = %64
  %82 = icmp eq i32 %65, 0
  %83 = and i1 %54, %82
  %or.cond38 = and i1 %42, %83
  br i1 %or.cond38, label %84, label %.thread45

84:                                               ; preds = %81
  %85 = getelementptr inbounds nuw i8, ptr %0, i64 8
  store i8 1, ptr %85, align 8, !tbaa !55
  br label %.thread45

.thread45:                                        ; preds = %77, %79, %.thread48, %81, %84, %70, %60, %48
  %.0 = phi i32 [ -1, %48 ], [ -1, %60 ], [ -1, %70 ], [ 0, %84 ], [ 0, %81 ], [ 0, %.thread48 ], [ 0, %79 ], [ 0, %77 ]
  ret i32 %.0
}